target datalayout = "e-m:e-p270:32:32-p271:32:32-p272:64:64-i64:64-i128:128-f80:128-n8:16:32:64-S128"
target triple = "x86_64-pc-linux-gnu"

%"class.ncnn::DataReader" = type { ptr }
%"class.ncnn::DataReaderFromMemory" = type { %"class.ncnn::DataReader", ptr }
%"class.ncnn::DataReaderFromMemoryPrivate" = type { ptr }

; Function Attrs: mustprogress nounwind uwtable
define hidden noundef i64 @_ZNK4ncnn20DataReaderFromMemory9referenceEmPPKv(ptr noundef nonnull align 8 dereferenceable(16) %0, i64 noundef %1, ptr noundef %2) unnamed_addr #0 align 2 {
  %4 = alloca ptr, align 8
  %5 = alloca i64, align 8
  %6 = alloca ptr, align 8
  store ptr %0, ptr %4, align 8, !tbaa !25
  store i64 %1, ptr %5, align 8, !tbaa !12
  store ptr %2, ptr %6, align 8, !tbaa !14
  %7 = load ptr, ptr %4, align 8
  %8 = getelementptr inbounds nuw %"class.ncnn::DataReaderFromMemory", ptr %7, i32 0, i32 1
  %9 = load ptr, ptr %8, align 8, !tbaa !29
  %10 = getelementptr inbounds nuw %"class.ncnn::DataReaderFromMemoryPrivate", ptr %9, i32 0, i32 0
  %11 = load ptr, ptr %10, align 8, !tbaa !32
  %12 = load ptr, ptr %11, align 8, !tbaa !9
  %13 = load ptr, ptr %6, align 8, !tbaa !14
  store ptr %12, ptr %13, align 8, !tbaa !11
  %14 = load i64, ptr %5, align 8, !tbaa !12
  %15 = getelementptr inbounds nuw %"class.ncnn::DataReaderFromMemory", ptr %7, i32 0, i32 1
  %16 = load ptr, ptr %15, align 8, !tbaa !29
  %17 = getelementptr inbounds nuw %"class.ncnn::DataReaderFromMemoryPrivate", ptr %16, i32 0, i32 0
  %18 = load ptr, ptr %17, align 8, !tbaa !32
  %19 = load ptr, ptr %18, align 8, !tbaa !9
  %20 = getelementptr inbounds nuw i8, ptr %19, i64 %14
  store ptr %20, ptr %18, align 8, !tbaa !9
  %21 = load i64, ptr %5, align 8, !tbaa !12
  ret i64 %21
}