; Function Attrs: mustprogress nofree norecurse nosync nounwind willreturn memory(readwrite, inaccessiblemem: none) uwtable
define hidden noundef i64 @_ZNK4ncnn20DataReaderFromMemory9referenceEmPPKv(ptr noundef nonnull readonly align 8 captures(none) dereferenceable(16) %0, i64 noundef returned %1, ptr noundef writeonly captures(none) initializes((0, 8)) %2) unnamed_addr #4 align 2 {
  %4 = getelementptr inbounds nuw i8, ptr %0, i64 8
  %5 = load ptr, ptr %4, align 8, !tbaa !16
  %6 = load ptr, ptr %5, align 8, !tbaa !21
  %7 = load ptr, ptr %6, align 8, !tbaa !25
  store ptr %7, ptr %2, align 8, !tbaa !27
  %8 = load ptr, ptr %4, align 8, !tbaa !16
  %9 = load ptr, ptr %8, align 8, !tbaa !21
  %10 = load ptr, ptr %9, align 8, !tbaa !25
  %11 = getelementptr inbounds nuw i8, ptr %10, i64 %1
  store ptr %11, ptr %9, align 8, !tbaa !25
  ret i64 %1
}